; Function Attrs: mustprogress uwtable
define noundef zeroext i1 @_ZN3zmq20stream_engine_base_t15init_propertiesERSt3mapINSt7__cxx1112basic_stringIcSt11char_traitsIcESaIcEEES7_St4lessIS7_ESaISt4pairIKS7_S7_EEE(ptr noundef nonnull align 8 dereferenceable(1689) %this, ptr noundef nonnull align 8 dereferenceable(48) %properties_) local_unnamed_addr #0 align 2 personality ptr @__gxx_personality_v0 {
entry:
  %ref.tmp = alloca %"class.std::__cxx11::basic_string", align 8
  %ref.tmp2 = alloca %"class.std::allocator", align 1
  %stream = alloca %"class.std::__cxx11::basic_ostringstream", align 8
  %fd_string = alloca %"class.std::__cxx11::basic_string", align 8
  %ref.tmp11 = alloca %"class.std::__cxx11::basic_string", align 8
  %ref.tmp12 = alloca %"class.std::allocator", align 1
  %_peer_address = getelementptr inbounds i8, ptr %this, i64 1544
  %call = tail call noundef zeroext i1 @_ZNKSt7__cxx1112basic_stringIcSt11char_traitsIcESaIcEE5emptyEv(ptr noundef nonnull align 8 dereferenceable(32) %_peer_address) #19
  br i1 %call, label %return, label %if.end

if.end:                                           ; preds = %entry
  call void @_ZNSaIcEC1Ev(ptr noundef nonnull align 1 dereferenceable(1) %ref.tmp2) #19
  invoke void @_ZNSt7__cxx1112basic_stringIcSt11char_traitsIcESaIcEEC1EPKcRKS3_(ptr noundef nonnull align 8 dereferenceable(32) %ref.tmp, ptr noundef nonnull @.str.22, ptr noundef nonnull align 1 dereferenceable(1) %ref.tmp2)
          to label %invoke.cont unwind label %lpad

invoke.cont:                                      ; preds = %if.end
  %call.i7 = invoke { ptr, i8 } @_ZNSt8_Rb_treeINSt7__cxx1112basic_stringIcSt11char_traitsIcESaIcEEESt4pairIKS5_S5_ESt10_Select1stIS8_ESt4lessIS5_ESaIS8_EE17_M_emplace_uniqueIJS5_RS7_EEES6_ISt17_Rb_tree_iteratorIS8_EbEDpOT_(ptr noundef nonnull align 8 dereferenceable(48) %properties_, ptr noundef nonnull align 8 dereferenceable(32) %ref.tmp, ptr noundef nonnull align 8 dereferenceable(32) %_peer_address)
          to label %invoke.cont5 unwind label %lpad4

invoke.cont5:                                     ; preds = %invoke.cont
  call void @_ZNSt7__cxx1112basic_stringIcSt11char_traitsIcESaIcEED1Ev(ptr noundef nonnull align 8 dereferenceable(32) %ref.tmp) #19
  call void @_ZNSaIcED1Ev(ptr noundef nonnull align 1 dereferenceable(1) %ref.tmp2) #19
  call void @_ZNSt7__cxx1119basic_ostringstreamIcSt11char_traitsIcESaIcEEC1Ev(ptr noundef nonnull align 8 dereferenceable(112) %stream)
  %_s = getelementptr inbounds i8, ptr %this, i64 1576
  %0 = load i32, ptr %_s, align 8
  %call9 = invoke noundef nonnull align 8 dereferenceable(8) ptr @_ZNSolsEi(ptr noundef nonnull align 8 dereferenceable(8) %stream, i32 noundef %0)
          to label %invoke.cont8 unwind label %lpad7

invoke.cont8:                                     ; preds = %invoke.cont5
  invoke void @_ZNKSt7__cxx1119basic_ostringstreamIcSt11char_traitsIcESaIcEE3strEv(ptr nonnull sret(%"class.std::__cxx11::basic_string") align 8 %fd_string, ptr noundef nonnull align 8 dereferenceable(112) %stream)
          to label %invoke.cont10 unwind label %lpad7

invoke.cont10:                                    ; preds = %invoke.cont8
  call void @_ZNSaIcEC1Ev(ptr noundef nonnull align 1 dereferenceable(1) %ref.tmp12) #19
  invoke void @_ZNSt7__cxx1112basic_stringIcSt11char_traitsIcESaIcEEC1EPKcRKS3_(ptr noundef nonnull align 8 dereferenceable(32) %ref.tmp11, ptr noundef nonnull @.str.23, ptr noundef nonnull align 1 dereferenceable(1) %ref.tmp12)
          to label %invoke.cont14 unwind label %lpad13

invoke.cont14:                                    ; preds = %invoke.cont10
  %call.i8 = invoke { ptr, i8 } @_ZNSt8_Rb_treeINSt7__cxx1112basic_stringIcSt11char_traitsIcESaIcEEESt4pairIKS5_S5_ESt10_Select1stIS8_ESt4lessIS5_ESaIS8_EE17_M_emplace_uniqueIJS5_S5_EEES6_ISt17_Rb_tree_iteratorIS8_EbEDpOT_(ptr noundef nonnull align 8 dereferenceable(48) %properties_, ptr noundef nonnull align 8 dereferenceable(32) %ref.tmp11, ptr noundef nonnull align 8 dereferenceable(32) %fd_string)
          to label %invoke.cont16 unwind label %lpad15

invoke.cont16:                                    ; preds = %invoke.cont14
  call void @_ZNSt7__cxx1112basic_stringIcSt11char_traitsIcESaIcEED1Ev(ptr noundef nonnull align 8 dereferenceable(32) %ref.tmp11) #19
  call void @_ZNSaIcED1Ev(ptr noundef nonnull align 1 dereferenceable(1) %ref.tmp12) #19
  call void @_ZNSt7__cxx1112basic_stringIcSt11char_traitsIcESaIcEED1Ev(ptr noundef nonnull align 8 dereferenceable(32) %fd_string) #19
  call void @_ZNSt7__cxx1119basic_ostringstreamIcSt11char_traitsIcESaIcEED1Ev(ptr noundef nonnull align 8 dereferenceable(112) %stream) #19
  br label %return

lpad:                                             ; preds = %if.end
  %1 = landingpad { ptr, i32 }
          cleanup
  br label %ehcleanup

lpad4:                                            ; preds = %invoke.cont
  %2 = landingpad { ptr, i32 }
          cleanup
  call void @_ZNSt7__cxx1112basic_stringIcSt11char_traitsIcESaIcEED1Ev(ptr noundef nonnull align 8 dereferenceable(32) %ref.tmp) #19
  br label %ehcleanup

ehcleanup:                                        ; preds = %lpad4, %lpad
  %.pn = phi { ptr, i32 } [ %2, %lpad4 ], [ %1, %lpad ]
  call void @_ZNSaIcED1Ev(ptr noundef nonnull align 1 dereferenceable(1) %ref.tmp2) #19
  br label %eh.resume

lpad7:                                            ; preds = %invoke.cont8, %invoke.cont5
  %3 = landingpad { ptr, i32 }
          cleanup
  br label %ehcleanup22

lpad13:                                           ; preds = %invoke.cont10
  %4 = landingpad { ptr, i32 }
          cleanup
  br label %ehcleanup20

lpad15:                                           ; preds = %invoke.cont14
  %5 = landingpad { ptr, i32 }
          cleanup
  call void @_ZNSt7__cxx1112basic_stringIcSt11char_traitsIcESaIcEED1Ev(ptr noundef nonnull align 8 dereferenceable(32) %ref.tmp11) #19
  br label %ehcleanup20

ehcleanup20:                                      ; preds = %lpad15, %lpad13
  %.pn3 = phi { ptr, i32 } [ %5, %lpad15 ], [ %4, %lpad13 ]
  call void @_ZNSaIcED1Ev(ptr noundef nonnull align 1 dereferenceable(1) %ref.tmp12) #19
  call void @_ZNSt7__cxx1112basic_stringIcSt11char_traitsIcESaIcEED1Ev(ptr noundef nonnull align 8 dereferenceable(32) %fd_string) #19
  br label %ehcleanup22

ehcleanup22:                                      ; preds = %ehcleanup20, %lpad7
  %.pn3.pn = phi { ptr, i32 } [ %.pn3, %ehcleanup20 ], [ %3, %lpad7 ]
  call void @_ZNSt7__cxx1119basic_ostringstreamIcSt11char_traitsIcESaIcEED1Ev(ptr noundef nonnull align 8 dereferenceable(112) %stream) #19
  br label %eh.resume

return:                                           ; preds = %entry, %invoke.cont16
  %retval.0 = xor i1 %call, true
  ret i1 %retval.0

eh.resume:                                        ; preds = %ehcleanup22, %ehcleanup
  %.pn3.pn.pn = phi { ptr, i32 } [ %.pn3.pn, %ehcleanup22 ], [ %.pn, %ehcleanup ]
  resume { ptr, i32 } %.pn3.pn.pn
}